target datalayout = "e-m:e-p270:32:32-p271:32:32-p272:64:64-i64:64-i128:128-f80:128-n8:16:32:64-S128"
target triple = "x86_64-pc-linux-gnu"

%struct.H5ES_event_t = type { ptr, ptr, ptr, %struct.H5ES_op_info_t }
%struct.H5ES_op_info_t = type { ptr, ptr, ptr, ptr, i32, i64, i64, i64, i64 }

@H5ES_init_g = external global i8, align 1
@H5_libterm_g = external global i8, align 1
@.str = private unnamed_addr constant [103 x i8] c"generated/home/dtcxzyw/WorkSpace/Projects/compilers/llvm-opt-benchmark/bench/hdf5/hdf5/src/H5ESevent.c\00", align 1
@H5E_EVENTSET_g = external global i64, align 8
@H5E_CANTFREE_g = external global i64, align 8
@__func__.H5ES__event_free = private unnamed_addr constant [17 x i8] c"H5ES__event_free\00", align 1
@.str.4 = private unnamed_addr constant [23 x i8] c"unable to free request\00", align 1
@H5E_CANTRELEASE_g = external global i64, align 8
@.str.5 = private unnamed_addr constant [30 x i8] c"can't free VOL request object\00", align 1
@H5_H5ES_event_t_reg_free_list = internal global { i8, [3 x i8], i32, i32, [4 x i8], ptr, i64, ptr } { i8 0, [3 x i8] zeroinitializer, i32 0, i32 0, [4 x i8] zeroinitializer, ptr @.str.7, i64 96, ptr null }, align 8

; Function Attrs: nounwind uwtable
define i32 @H5ES__event_free(ptr noundef %0) #0 {
  %2 = alloca ptr, align 8
  %3 = alloca i32, align 4
  %4 = alloca i8, align 1
  store ptr %0, ptr %2, align 8, !tbaa !9
  call void @llvm.lifetime.start.p0(i64 4, ptr %3) #4
  store i32 0, ptr %3, align 4, !tbaa !24
  call void @llvm.lifetime.start.p0(i64 1, ptr %4) #4
  store i8 0, ptr %4, align 1, !tbaa !13
  %5 = load i8, ptr @H5ES_init_g, align 1, !tbaa !13, !range !15, !noundef !16
  %6 = trunc i8 %5 to i1
  br i1 %6, label %11, label %7

7:                                                ; preds = %1
  %8 = load i8, ptr @H5_libterm_g, align 1, !tbaa !13, !range !15, !noundef !16
  %9 = trunc i8 %8 to i1
  %10 = xor i1 %9, true
  br label %11

11:                                               ; preds = %7, %1
  %12 = phi i1 [ true, %1 ], [ %10, %7 ]
  %13 = xor i1 %12, true
  %14 = xor i1 %13, true
  %15 = zext i1 %14 to i32
  %16 = sext i32 %15 to i64
  %17 = call i64 @llvm.expect.i64(i64 %16, i64 1)
  %18 = icmp ne i64 %17, 0
  br i1 %18, label %19, label %100

19:                                               ; preds = %11
  %20 = load ptr, ptr %2, align 8, !tbaa !9
  %21 = getelementptr inbounds nuw %struct.H5ES_event_t, ptr %20, i32 0, i32 3
  %22 = getelementptr inbounds nuw %struct.H5ES_op_info_t, ptr %21, i32 0, i32 0
  store ptr null, ptr %22, align 8, !tbaa !25
  %23 = load ptr, ptr %2, align 8, !tbaa !9
  %24 = getelementptr inbounds nuw %struct.H5ES_event_t, ptr %23, i32 0, i32 3
  %25 = getelementptr inbounds nuw %struct.H5ES_op_info_t, ptr %24, i32 0, i32 1
  %26 = load ptr, ptr %25, align 8, !tbaa !26
  %27 = icmp ne ptr %26, null
  br i1 %27, label %28, label %34

28:                                               ; preds = %19
  %29 = load ptr, ptr %2, align 8, !tbaa !9
  %30 = getelementptr inbounds nuw %struct.H5ES_event_t, ptr %29, i32 0, i32 3
  %31 = getelementptr inbounds nuw %struct.H5ES_op_info_t, ptr %30, i32 0, i32 1
  %32 = load ptr, ptr %31, align 8, !tbaa !26
  %33 = call ptr @H5MM_xfree_const(ptr noundef %32)
  br label %34

34:                                               ; preds = %28, %19
  %35 = load ptr, ptr %2, align 8, !tbaa !9
  %36 = getelementptr inbounds nuw %struct.H5ES_event_t, ptr %35, i32 0, i32 3
  %37 = getelementptr inbounds nuw %struct.H5ES_op_info_t, ptr %36, i32 0, i32 2
  store ptr null, ptr %37, align 8, !tbaa !27
  %38 = load ptr, ptr %2, align 8, !tbaa !9
  %39 = getelementptr inbounds nuw %struct.H5ES_event_t, ptr %38, i32 0, i32 3
  %40 = getelementptr inbounds nuw %struct.H5ES_op_info_t, ptr %39, i32 0, i32 3
  store ptr null, ptr %40, align 8, !tbaa !28
  %41 = load ptr, ptr %2, align 8, !tbaa !9
  %42 = getelementptr inbounds nuw %struct.H5ES_event_t, ptr %41, i32 0, i32 0
  %43 = load ptr, ptr %42, align 8, !tbaa !19
  %44 = icmp ne ptr %43, null
  br i1 %44, label %45, label %96

45:                                               ; preds = %34
  %46 = load ptr, ptr %2, align 8, !tbaa !9
  %47 = getelementptr inbounds nuw %struct.H5ES_event_t, ptr %46, i32 0, i32 0
  %48 = load ptr, ptr %47, align 8, !tbaa !19
  %49 = call i32 @H5VL_request_free(ptr noundef %48)
  %50 = icmp slt i32 %49, 0
  br i1 %50, label %51, label %70

51:                                               ; preds = %45
  br label %52

52:                                               ; preds = %51
  br label %53

53:                                               ; preds = %52
  br label %54

54:                                               ; preds = %53
  %55 = load i64, ptr @H5E_EVENTSET_g, align 8, !tbaa !17
  %56 = load i64, ptr @H5E_CANTFREE_g, align 8, !tbaa !17
  %57 = call i32 (ptr, ptr, i32, i64, i64, ptr, ...) @H5E_printf_stack(ptr noundef @.str, ptr noundef @__func__.H5ES__event_free, i32 noundef 145, i64 noundef %55, i64 noundef %56, ptr noundef @.str.4)
  br label %58

58:                                               ; preds = %54
  br label %59

59:                                               ; preds = %58
  store i8 1, ptr %4, align 1, !tbaa !13
  %60 = load i8, ptr %4, align 1, !tbaa !13, !range !15, !noundef !16
  %61 = trunc i8 %60 to i1
  %62 = zext i1 %61 to i8
  store i8 %62, ptr %4, align 1, !tbaa !13
  br label %63

63:                                               ; preds = %59
  br label %64

64:                                               ; preds = %63
  br label %65

65:                                               ; preds = %64
  store i32 -1, ptr %3, align 4, !tbaa !24
  br label %99

66:                                               ; No predecessors!
  br label %67

67:                                               ; preds = %66
  br label %68

68:                                               ; preds = %67
  br label %69

69:                                               ; preds = %68
  br label %70

70:                                               ; preds = %69, %45
  %71 = load ptr, ptr %2, align 8, !tbaa !9
  %72 = getelementptr inbounds nuw %struct.H5ES_event_t, ptr %71, i32 0, i32 0
  %73 = load ptr, ptr %72, align 8, !tbaa !19
  %74 = call i32 @H5VL_free_object(ptr noundef %73)
  %75 = icmp slt i32 %74, 0
  br i1 %75, label %76, label %95

76:                                               ; preds = %70
  br label %77

77:                                               ; preds = %76
  br label %78

78:                                               ; preds = %77
  br label %79

79:                                               ; preds = %78
  %80 = load i64, ptr @H5E_EVENTSET_g, align 8, !tbaa !17
  %81 = load i64, ptr @H5E_CANTRELEASE_g, align 8, !tbaa !17
  %82 = call i32 (ptr, ptr, i32, i64, i64, ptr, ...) @H5E_printf_stack(ptr noundef @.str, ptr noundef @__func__.H5ES__event_free, i32 noundef 149, i64 noundef %80, i64 noundef %81, ptr noundef @.str.5)
  br label %83

83:                                               ; preds = %79
  br label %84

84:                                               ; preds = %83
  store i8 1, ptr %4, align 1, !tbaa !13
  %85 = load i8, ptr %4, align 1, !tbaa !13, !range !15, !noundef !16
  %86 = trunc i8 %85 to i1
  %87 = zext i1 %86 to i8
  store i8 %87, ptr %4, align 1, !tbaa !13
  br label %88

88:                                               ; preds = %84
  br label %89

89:                                               ; preds = %88
  br label %90

90:                                               ; preds = %89
  store i32 -1, ptr %3, align 4, !tbaa !24
  br label %99

91:                                               ; No predecessors!
  br label %92

92:                                               ; preds = %91
  br label %93

93:                                               ; preds = %92
  br label %94

94:                                               ; preds = %93
  br label %95

95:                                               ; preds = %94, %70
  br label %96

96:                                               ; preds = %95, %34
  %97 = load ptr, ptr %2, align 8, !tbaa !9
  %98 = call ptr @H5FL_reg_free(ptr noundef @H5_H5ES_event_t_reg_free_list, ptr noundef %97)
  br label %99

99:                                               ; preds = %96, %90, %65
  br label %100

100:                                              ; preds = %99, %11
  %101 = load i32, ptr %3, align 4, !tbaa !24
  call void @llvm.lifetime.end.p0(i64 1, ptr %4) #4
  call void @llvm.lifetime.end.p0(i64 4, ptr %3) #4
  ret i32 %101
}