; Function Attrs: nounwind uwtable
define range(i32 -1, 1) i32 @H5ES__event_free(ptr noundef %0) local_unnamed_addr #0 {
  %2 = load i8, ptr @H5ES_init_g, align 1, !tbaa !3, !range !7, !noundef !8
  %3 = trunc nuw i8 %2 to i1
  %4 = load i8, ptr @H5_libterm_g, align 1, !range !7
  %5 = trunc nuw i8 %4 to i1
  %6 = xor i1 %5, true
  %7 = select i1 %3, i1 true, i1 %6
  br i1 %7, label %8, label %34, !prof !9

8:                                                ; preds = %1
  %9 = getelementptr inbounds nuw i8, ptr %0, i64 24
  store ptr null, ptr %9, align 8, !tbaa !20
  %10 = getelementptr inbounds nuw i8, ptr %0, i64 32
  %11 = load ptr, ptr %10, align 8, !tbaa !21
  %.not = icmp eq ptr %11, null
  br i1 %.not, label %14, label %12

12:                                               ; preds = %8
  %13 = tail call ptr @H5MM_xfree_const(ptr noundef nonnull %11) #3
  br label %14

14:                                               ; preds = %12, %8
  %15 = getelementptr inbounds nuw i8, ptr %0, i64 40
  tail call void @llvm.memset.p0.i64(ptr noundef nonnull align 8 dereferenceable(16) %15, i8 0, i64 16, i1 false)
  %16 = load ptr, ptr %0, align 8, !tbaa !12
  %.not13 = icmp eq ptr %16, null
  br i1 %.not13, label %32, label %17

17:                                               ; preds = %14
  %18 = tail call i32 @H5VL_request_free(ptr noundef nonnull %16) #3
  %19 = icmp slt i32 %18, 0
  br i1 %19, label %20, label %24

20:                                               ; preds = %17
  %21 = load i64, ptr @H5E_EVENTSET_g, align 8, !tbaa !10
  %22 = load i64, ptr @H5E_CANTFREE_g, align 8, !tbaa !10
  %23 = tail call i32 (ptr, ptr, i32, i64, i64, ptr, ...) @H5E_printf_stack(ptr noundef nonnull @.str, ptr noundef nonnull @__func__.H5ES__event_free, i32 noundef 145, i64 noundef %21, i64 noundef %22, ptr noundef nonnull @.str.4) #3
  br label %34

24:                                               ; preds = %17
  %25 = load ptr, ptr %0, align 8, !tbaa !12
  %26 = tail call i32 @H5VL_free_object(ptr noundef %25) #3
  %27 = icmp slt i32 %26, 0
  br i1 %27, label %28, label %32

28:                                               ; preds = %24
  %29 = load i64, ptr @H5E_EVENTSET_g, align 8, !tbaa !10
  %30 = load i64, ptr @H5E_CANTRELEASE_g, align 8, !tbaa !10
  %31 = tail call i32 (ptr, ptr, i32, i64, i64, ptr, ...) @H5E_printf_stack(ptr noundef nonnull @.str, ptr noundef nonnull @__func__.H5ES__event_free, i32 noundef 149, i64 noundef %29, i64 noundef %30, ptr noundef nonnull @.str.5) #3
  br label %34

32:                                               ; preds = %24, %14
  %33 = tail call ptr @H5FL_reg_free(ptr noundef nonnull @H5_H5ES_event_t_reg_free_list, ptr noundef nonnull %0) #3
  br label %34

34:                                               ; preds = %20, %28, %32, %1
  %.0 = phi i32 [ -1, %20 ], [ -1, %28 ], [ 0, %32 ], [ 0, %1 ]
  ret i32 %.0
}